; Function Attrs: mustprogress nofree norecurse nosync nounwind willreturn memory(argmem: read) uwtable
define noundef i32 @_ZNK10open_spiel9coin_game8CoinGame17MaxChanceOutcomesEv(ptr nocapture noundef nonnull readonly align 8 dereferenceable(304) %0) unnamed_addr #12 align 2 {
  %2 = getelementptr inbounds nuw i8, ptr %0, i64 296
  %3 = getelementptr inbounds nuw i8, ptr %0, i64 284
  %4 = load i32, ptr %3, align 4
  %5 = getelementptr inbounds nuw i8, ptr %0, i64 288
  %6 = load i32, ptr %5, align 8
  %7 = mul nsw i32 %6, %4
  %8 = load i32, ptr %2, align 8
  %.sroa.speculated = tail call i32 @llvm.smax.i32(i32 %8, i32 %7)
  ret i32 %.sroa.speculated
}